; ModuleID = 'source-C-CXX/43/252.cpp'
source_filename = "source-C-CXX/43/252.cpp"
target datalayout = "e-m:e-p270:32:32-p271:32:32-p272:64:64-i64:64-f80:128-n8:16:32:64-S128"
target triple = "x86_64-pc-linux-gnu"

%"class.std::ios_base::Init" = type { i8 }
%"class.std::basic_istream" = type { i32 (...)**, i64, %"class.std::basic_ios" }
%"class.std::basic_ios" = type { %"class.std::ios_base", %"class.std::basic_ostream"*, i8, i8, %"class.std::basic_streambuf"*, %"class.std::ctype"*, %"class.std::num_put"*, %"class.std::num_get"* }
%"class.std::ios_base" = type { i32 (...)**, i64, i64, i32, i32, i32, %"struct.std::ios_base::_Callback_list"*, %"struct.std::ios_base::_Words", [8 x %"struct.std::ios_base::_Words"], i32, %"struct.std::ios_base::_Words"*, %"class.std::locale" }
%"struct.std::ios_base::_Callback_list" = type { %"struct.std::ios_base::_Callback_list"*, void (i32, %"class.std::ios_base"*, i32)*, i32, i32 }
%"struct.std::ios_base::_Words" = type { i8*, i64 }
%"class.std::locale" = type { %"class.std::locale::_Impl"* }
%"class.std::locale::_Impl" = type { i32, %"class.std::locale::facet"**, i64, %"class.std::locale::facet"**, i8** }
%"class.std::locale::facet" = type <{ i32 (...)**, i32, [4 x i8] }>
%"class.std::basic_ostream" = type { i32 (...)**, %"class.std::basic_ios" }
%"class.std::basic_streambuf" = type { i32 (...)**, i8*, i8*, i8*, i8*, i8*, i8*, %"class.std::locale" }
%"class.std::ctype" = type <{ %"class.std::locale::facet.base", [4 x i8], %struct.__locale_struct*, i8, [7 x i8], i32*, i32*, i16*, i8, [256 x i8], [256 x i8], i8, [6 x i8] }>
%"class.std::locale::facet.base" = type <{ i32 (...)**, i32 }>
%struct.__locale_struct = type { [13 x %struct.__locale_data*], i16*, i32*, i32*, [13 x i8*] }
%struct.__locale_data = type opaque
%"class.std::num_put" = type { %"class.std::locale::facet.base", [4 x i8] }
%"class.std::num_get" = type { %"class.std::locale::facet.base", [4 x i8] }

@_ZStL8__ioinit = internal global %"class.std::ios_base::Init" zeroinitializer, align 1
@__dso_handle = external hidden global i8
@_ZSt3cin = external global %"class.std::basic_istream", align 8
@_ZSt4cout = external global %"class.std::basic_ostream", align 8
@.str = private unnamed_addr constant [2 x i8] c"-\00", align 1
@llvm.global_ctors = appending global [1 x { i32, void ()*, i8* }] [{ i32, void ()*, i8* } { i32 65535, void ()* @_GLOBAL__sub_I_252.cpp, i8* null }]

declare void @_ZNSt8ios_base4InitC1Ev(%"class.std::ios_base::Init"* nonnull align 1 dereferenceable(1)) unnamed_addr #0

; Function Attrs: nounwind
declare void @_ZNSt8ios_base4InitD1Ev(%"class.std::ios_base::Init"* nonnull align 1 dereferenceable(1)) unnamed_addr #1

; Function Attrs: nofree nounwind
declare i32 @__cxa_atexit(void (i8*)*, i8*, i8*) local_unnamed_addr #2

; Function Attrs: mustprogress norecurse sspstrong uwtable
define dso_local i32 @main() local_unnamed_addr #3 {
  %1 = alloca i32, align 4
  %2 = bitcast i32* %1 to i8*
  call void @llvm.lifetime.start.p0i8(i64 4, i8* nonnull %2) #10
  store i32 0, i32* %1, align 4, !tbaa !5
  %3 = call nonnull align 8 dereferenceable(16) %"class.std::basic_istream"* @_ZNSirsERi(%"class.std::basic_istream"* nonnull align 8 dereferenceable(16) @_ZSt3cin, i32* nonnull align 4 dereferenceable(4) %1)
  %4 = bitcast %"class.std::basic_istream"* %3 to i8**
  %5 = load i8*, i8** %4, align 8, !tbaa !9
  %6 = getelementptr i8, i8* %5, i64 -24
  %7 = bitcast i8* %6 to i64*
  %8 = load i64, i64* %7, align 8
  %9 = bitcast %"class.std::basic_istream"* %3 to i8*
  %10 = add nsw i64 %8, 32
  %11 = getelementptr inbounds i8, i8* %9, i64 %10
  %12 = bitcast i8* %11 to i32*
  %13 = load i32, i32* %12, align 8, !tbaa !11
  %14 = and i32 %13, 5
  %15 = icmp eq i32 %14, 0
  br i1 %15, label %16, label %62

16:                                               ; preds = %0, %45
  %17 = load i32, i32* %1, align 4, !tbaa !5
  %18 = call i32 @_Z7reversei(i32 %17)
  %19 = call nonnull align 8 dereferenceable(8) %"class.std::basic_ostream"* @_ZNSolsEi(%"class.std::basic_ostream"* nonnull align 8 dereferenceable(8) @_ZSt4cout, i32 %18)
  %20 = bitcast %"class.std::basic_ostream"* %19 to i8**
  %21 = load i8*, i8** %20, align 8, !tbaa !9
  %22 = getelementptr i8, i8* %21, i64 -24
  %23 = bitcast i8* %22 to i64*
  %24 = load i64, i64* %23, align 8
  %25 = bitcast %"class.std::basic_ostream"* %19 to i8*
  %26 = add nsw i64 %24, 240
  %27 = getelementptr inbounds i8, i8* %25, i64 %26
  %28 = bitcast i8* %27 to %"class.std::ctype"**
  %29 = load %"class.std::ctype"*, %"class.std::ctype"** %28, align 8, !tbaa !19
  %30 = icmp eq %"class.std::ctype"* %29, null
  br i1 %30, label %31, label %32

31:                                               ; preds = %16
  call void @_ZSt16__throw_bad_castv() #11
  unreachable

32:                                               ; preds = %16
  %33 = getelementptr inbounds %"class.std::ctype", %"class.std::ctype"* %29, i64 0, i32 8
  %34 = load i8, i8* %33, align 8, !tbaa !22
  %35 = icmp eq i8 %34, 0
  br i1 %35, label %39, label %36

36:                                               ; preds = %32
  %37 = getelementptr inbounds %"class.std::ctype", %"class.std::ctype"* %29, i64 0, i32 9, i64 10
  %38 = load i8, i8* %37, align 1, !tbaa !24
  br label %45

39:                                               ; preds = %32
  call void @_ZNKSt5ctypeIcE13_M_widen_initEv(%"class.std::ctype"* nonnull align 8 dereferenceable(570) %29)
  %40 = bitcast %"class.std::ctype"* %29 to i8 (%"class.std::ctype"*, i8)***
  %41 = load i8 (%"class.std::ctype"*, i8)**, i8 (%"class.std::ctype"*, i8)*** %40, align 8, !tbaa !9
  %42 = getelementptr inbounds i8 (%"class.std::ctype"*, i8)*, i8 (%"class.std::ctype"*, i8)** %41, i64 6
  %43 = load i8 (%"class.std::ctype"*, i8)*, i8 (%"class.std::ctype"*, i8)** %42, align 8
  %44 = call signext i8 %43(%"class.std::ctype"* nonnull align 8 dereferenceable(570) %29, i8 signext 10)
  br label %45

45:                                               ; preds = %36, %39
  %46 = phi i8 [ %38, %36 ], [ %44, %39 ]
  %47 = call nonnull align 8 dereferenceable(8) %"class.std::basic_ostream"* @_ZNSo3putEc(%"class.std::basic_ostream"* nonnull align 8 dereferenceable(8) %19, i8 signext %46)
  %48 = call nonnull align 8 dereferenceable(8) %"class.std::basic_ostream"* @_ZNSo5flushEv(%"class.std::basic_ostream"* nonnull align 8 dereferenceable(8) %47)
  %49 = call nonnull align 8 dereferenceable(16) %"class.std::basic_istream"* @_ZNSirsERi(%"class.std::basic_istream"* nonnull align 8 dereferenceable(16) @_ZSt3cin, i32* nonnull align 4 dereferenceable(4) %1)
  %50 = bitcast %"class.std::basic_istream"* %49 to i8**
  %51 = load i8*, i8** %50, align 8, !tbaa !9
  %52 = getelementptr i8, i8* %51, i64 -24
  %53 = bitcast i8* %52 to i64*
  %54 = load i64, i64* %53, align 8
  %55 = bitcast %"class.std::basic_istream"* %49 to i8*
  %56 = add nsw i64 %54, 32
  %57 = getelementptr inbounds i8, i8* %55, i64 %56
  %58 = bitcast i8* %57 to i32*
  %59 = load i32, i32* %58, align 8, !tbaa !11
  %60 = and i32 %59, 5
  %61 = icmp eq i32 %60, 0
  br i1 %61, label %16, label %62, !llvm.loop !25

62:                                               ; preds = %45, %0
  call void @llvm.lifetime.end.p0i8(i64 4, i8* nonnull %2) #10
  ret i32 0
}

; Function Attrs: argmemonly mustprogress nofree nosync nounwind willreturn
declare void @llvm.lifetime.start.p0i8(i64 immarg, i8* nocapture) #4

declare nonnull align 8 dereferenceable(16) %"class.std::basic_istream"* @_ZNSirsERi(%"class.std::basic_istream"* nonnull align 8 dereferenceable(16), i32* nonnull align 4 dereferenceable(4)) local_unnamed_addr #0

declare nonnull align 8 dereferenceable(8) %"class.std::basic_ostream"* @_ZNSolsEi(%"class.std::basic_ostream"* nonnull align 8 dereferenceable(8), i32) local_unnamed_addr #0

; Function Attrs: mustprogress sspstrong uwtable
define dso_local i32 @_Z7reversei(i32 %0) local_unnamed_addr #5 {
  %2 = alloca [10 x i32], align 16
  %3 = bitcast [10 x i32]* %2 to i8*
  call void @llvm.lifetime.start.p0i8(i64 40, i8* nonnull %3) #10
  call void @llvm.memset.p0i8.i64(i8* noundef nonnull align 16 dereferenceable(40) %3, i8 0, i64 40, i1 false)
  %4 = icmp eq i32 %0, 0
  br i1 %4, label %114, label %5

5:                                                ; preds = %1
  %6 = icmp slt i32 %0, 0
  br i1 %6, label %7, label %10

7:                                                ; preds = %5
  %8 = tail call nonnull align 8 dereferenceable(8) %"class.std::basic_ostream"* @_ZSt16__ostream_insertIcSt11char_traitsIcEERSt13basic_ostreamIT_T0_ES6_PKS3_l(%"class.std::basic_ostream"* nonnull align 8 dereferenceable(8) @_ZSt4cout, i8* nonnull getelementptr inbounds ([2 x i8], [2 x i8]* @.str, i64 0, i64 0), i64 1)
  %9 = sub nsw i32 0, %0
  br label %10

10:                                               ; preds = %5, %7
  %11 = phi i32 [ %9, %7 ], [ %0, %5 ]
  %12 = urem i32 %11, 10
  %13 = icmp ult i32 %11, 10
  br i1 %13, label %22, label %103

14:                                               ; preds = %103
  %15 = getelementptr inbounds [10 x i32], [10 x i32]* %2, i64 0, i64 1
  %16 = load i32, i32* %15, align 4, !tbaa !5
  %17 = getelementptr inbounds [10 x i32], [10 x i32]* %2, i64 0, i64 2
  %18 = bitcast i32* %17 to <8 x i32>*
  %19 = load <8 x i32>, <8 x i32>* %18, align 8, !tbaa !5
  %20 = sitofp i32 %16 to double
  %21 = sitofp <8 x i32> %19 to <8 x double>
  br label %22

22:                                               ; preds = %14, %10
  %23 = phi double [ 0.000000e+00, %10 ], [ %20, %14 ]
  %24 = phi i32 [ 0, %10 ], [ %107, %14 ]
  %25 = phi <8 x double> [ zeroinitializer, %10 ], [ %21, %14 ]
  %26 = sitofp i32 %12 to double
  %27 = sitofp i32 %24 to double
  %28 = tail call double @pow(double 1.000000e+01, double %27) #10
  %29 = fmul double %28, %26
  %30 = fadd double %29, 0.000000e+00
  %31 = fptosi double %30 to i32
  %32 = sitofp i32 %31 to double
  %33 = add i32 %24, -1
  %34 = sitofp i32 %33 to double
  %35 = tail call double @pow(double 1.000000e+01, double %34) #10
  %36 = fmul double %35, %23
  %37 = fadd double %36, %32
  %38 = fptosi double %37 to i32
  %39 = sitofp i32 %38 to double
  %40 = add i32 %24, -2
  %41 = sitofp i32 %40 to double
  %42 = tail call double @pow(double 1.000000e+01, double %41) #10
  %43 = extractelement <8 x double> %25, i32 0
  %44 = fmul double %42, %43
  %45 = fadd double %44, %39
  %46 = fptosi double %45 to i32
  %47 = sitofp i32 %46 to double
  %48 = add i32 %24, -3
  %49 = sitofp i32 %48 to double
  %50 = tail call double @pow(double 1.000000e+01, double %49) #10
  %51 = extractelement <8 x double> %25, i32 1
  %52 = fmul double %50, %51
  %53 = fadd double %52, %47
  %54 = fptosi double %53 to i32
  %55 = sitofp i32 %54 to double
  %56 = add i32 %24, -4
  %57 = sitofp i32 %56 to double
  %58 = tail call double @pow(double 1.000000e+01, double %57) #10
  %59 = extractelement <8 x double> %25, i32 2
  %60 = fmul double %58, %59
  %61 = fadd double %60, %55
  %62 = fptosi double %61 to i32
  %63 = sitofp i32 %62 to double
  %64 = add i32 %24, -5
  %65 = sitofp i32 %64 to double
  %66 = tail call double @pow(double 1.000000e+01, double %65) #10
  %67 = extractelement <8 x double> %25, i32 3
  %68 = fmul double %66, %67
  %69 = fadd double %68, %63
  %70 = fptosi double %69 to i32
  %71 = sitofp i32 %70 to double
  %72 = add i32 %24, -6
  %73 = sitofp i32 %72 to double
  %74 = tail call double @pow(double 1.000000e+01, double %73) #10
  %75 = extractelement <8 x double> %25, i32 4
  %76 = fmul double %74, %75
  %77 = fadd double %76, %71
  %78 = fptosi double %77 to i32
  %79 = sitofp i32 %78 to double
  %80 = add i32 %24, -7
  %81 = sitofp i32 %80 to double
  %82 = tail call double @pow(double 1.000000e+01, double %81) #10
  %83 = extractelement <8 x double> %25, i32 5
  %84 = fmul double %82, %83
  %85 = fadd double %84, %79
  %86 = fptosi double %85 to i32
  %87 = sitofp i32 %86 to double
  %88 = add i32 %24, -8
  %89 = sitofp i32 %88 to double
  %90 = tail call double @pow(double 1.000000e+01, double %89) #10
  %91 = extractelement <8 x double> %25, i32 6
  %92 = fmul double %90, %91
  %93 = fadd double %92, %87
  %94 = fptosi double %93 to i32
  %95 = sitofp i32 %94 to double
  %96 = add i32 %24, -9
  %97 = sitofp i32 %96 to double
  %98 = tail call double @pow(double 1.000000e+01, double %97) #10
  %99 = extractelement <8 x double> %25, i32 7
  %100 = fmul double %98, %99
  %101 = fadd double %100, %95
  %102 = fptosi double %101 to i32
  br label %114

103:                                              ; preds = %10, %103
  %104 = phi i64 [ %109, %103 ], [ 0, %10 ]
  %105 = phi i32 [ %107, %103 ], [ 0, %10 ]
  %106 = phi i32 [ %108, %103 ], [ %11, %10 ]
  %107 = add nuw nsw i32 %105, 1
  %108 = sdiv i32 %106, 10
  %109 = add nuw nsw i64 %104, 1
  %110 = srem i32 %108, 10
  %111 = getelementptr inbounds [10 x i32], [10 x i32]* %2, i64 0, i64 %109
  store i32 %110, i32* %111, align 4, !tbaa !5
  %112 = add nsw i32 %108, 9
  %113 = icmp ult i32 %112, 19
  br i1 %113, label %14, label %103, !llvm.loop !27

114:                                              ; preds = %22, %1
  %115 = phi i32 [ 0, %1 ], [ %102, %22 ]
  call void @llvm.lifetime.end.p0i8(i64 40, i8* nonnull %3) #10
  ret i32 %115
}

; Function Attrs: argmemonly mustprogress nofree nosync nounwind willreturn
declare void @llvm.lifetime.end.p0i8(i64 immarg, i8* nocapture) #4

; Function Attrs: argmemonly mustprogress nofree nounwind willreturn writeonly
declare void @llvm.memset.p0i8.i64(i8* nocapture writeonly, i8, i64, i1 immarg) #6

; Function Attrs: mustprogress nofree nounwind willreturn
declare double @pow(double, double) local_unnamed_addr #7

declare nonnull align 8 dereferenceable(8) %"class.std::basic_ostream"* @_ZNSo3putEc(%"class.std::basic_ostream"* nonnull align 8 dereferenceable(8), i8 signext) local_unnamed_addr #0

declare nonnull align 8 dereferenceable(8) %"class.std::basic_ostream"* @_ZNSo5flushEv(%"class.std::basic_ostream"* nonnull align 8 dereferenceable(8)) local_unnamed_addr #0

; Function Attrs: noreturn
declare void @_ZSt16__throw_bad_castv() local_unnamed_addr #8

declare void @_ZNKSt5ctypeIcE13_M_widen_initEv(%"class.std::ctype"* nonnull align 8 dereferenceable(570)) local_unnamed_addr #0

declare nonnull align 8 dereferenceable(8) %"class.std::basic_ostream"* @_ZSt16__ostream_insertIcSt11char_traitsIcEERSt13basic_ostreamIT_T0_ES6_PKS3_l(%"class.std::basic_ostream"* nonnull align 8 dereferenceable(8), i8*, i64) local_unnamed_addr #0

; Function Attrs: sspstrong uwtable
define internal void @_GLOBAL__sub_I_252.cpp() #9 section ".text.startup" {
  tail call void @_ZNSt8ios_base4InitC1Ev(%"class.std::ios_base::Init"* nonnull align 1 dereferenceable(1) @_ZStL8__ioinit)
  %1 = tail call i32 @__cxa_atexit(void (i8*)* bitcast (void (%"class.std::ios_base::Init"*)* @_ZNSt8ios_base4InitD1Ev to void (i8*)*), i8* getelementptr inbounds (%"class.std::ios_base::Init", %"class.std::ios_base::Init"* @_ZStL8__ioinit, i64 0, i32 0), i8* nonnull @__dso_handle) #10
  ret void
}


!llvm.module.flags = !{!0, !1, !2, !3}
!llvm.ident = !{!4}

!0 = !{i32 1, !"wchar_size", i32 4}
!1 = !{i32 7, !"PIC Level", i32 2}
!2 = !{i32 7, !"PIE Level", i32 2}
!3 = !{i32 7, !"uwtable", i32 1}
!4 = !{!"clang version 13.0.0"}
!5 = !{!6, !6, i64 0}
!6 = !{!"int", !7, i64 0}
!7 = !{!"omnipotent char", !8, i64 0}
!8 = !{!"Simple C++ TBAA"}
!9 = !{!10, !10, i64 0}
!10 = !{!"vtable pointer", !8, i64 0}
!11 = !{!12, !15, i64 32}
!12 = !{!"_ZTSSt8ios_base", !13, i64 8, !13, i64 16, !14, i64 24, !15, i64 28, !15, i64 32, !16, i64 40, !17, i64 48, !7, i64 64, !6, i64 192, !16, i64 200, !18, i64 208}
!13 = !{!"long", !7, i64 0}
!14 = !{!"_ZTSSt13_Ios_Fmtflags", !7, i64 0}
!15 = !{!"_ZTSSt12_Ios_Iostate", !7, i64 0}
!16 = !{!"any pointer", !7, i64 0}
!17 = !{!"_ZTSNSt8ios_base6_WordsE", !16, i64 0, !13, i64 8}
!18 = !{!"_ZTSSt6locale", !16, i64 0}
!19 = !{!20, !16, i64 240}
!20 = !{!"_ZTSSt9basic_iosIcSt11char_traitsIcEE", !16, i64 216, !7, i64 224, !21, i64 225, !16, i64 232, !16, i64 240, !16, i64 248, !16, i64 256}
!21 = !{!"bool", !7, i64 0}
!22 = !{!23, !7, i64 56}
!23 = !{!"_ZTSSt5ctypeIcE", !16, i64 16, !21, i64 24, !16, i64 32, !16, i64 40, !16, i64 48, !7, i64 56, !7, i64 57, !7, i64 313, !7, i64 569}
!24 = !{!7, !7, i64 0}
!25 = distinct !{!25, !26}
!26 = !{!"llvm.loop.mustprogress"}
!27 = distinct !{!27, !26}
